target datalayout = "e-m:e-p270:32:32-p271:32:32-p272:64:64-i64:64-i128:128-f80:128-n8:16:32:64-S128"
target triple = "x86_64-pc-linux-gnu"

%"class.__gnu_cxx::__normal_iterator" = type { ptr }
%"class.igl::opengl::glfw::Viewer" = type { i32, %"class.std::vector", i64, i32, ptr, %"class.std::vector.1", i64, i32, %"class.std::vector.6", [8 x i8], %"class.Eigen::Quaternion", i32, i32, i32, i32, float, %"class.Eigen::Matrix.13", i8, i8, float, %"class.std::function", %"class.std::function", %"class.std::function", %"class.std::function.23", %"class.std::function.23", %"class.std::function.23", %"class.std::function.25", %"class.std::function.27", %"class.std::function.23", %"class.std::function.27", %"class.std::function.27", ptr, ptr, ptr, ptr, ptr, ptr, ptr, ptr, ptr, ptr, [8 x i8] }
%"class.std::vector" = type { %"struct.std::_Vector_base" }
%"struct.std::_Vector_base" = type { %"struct.std::_Vector_base<igl::opengl::ViewerData, std::allocator<igl::opengl::ViewerData>>::_Vector_impl" }
%"struct.std::_Vector_base<igl::opengl::ViewerData, std::allocator<igl::opengl::ViewerData>>::_Vector_impl" = type { %"struct.std::_Vector_base<igl::opengl::ViewerData, std::allocator<igl::opengl::ViewerData>>::_Vector_impl_data" }
%"struct.std::_Vector_base<igl::opengl::ViewerData, std::allocator<igl::opengl::ViewerData>>::_Vector_impl_data" = type { ptr, ptr, ptr }
%"class.std::vector.1" = type { %"struct.std::_Vector_base.2" }
%"struct.std::_Vector_base.2" = type { %"struct.std::_Vector_base<igl::opengl::ViewerCore, std::allocator<igl::opengl::ViewerCore>>::_Vector_impl" }
%"struct.std::_Vector_base<igl::opengl::ViewerCore, std::allocator<igl::opengl::ViewerCore>>::_Vector_impl" = type { %"struct.std::_Vector_base<igl::opengl::ViewerCore, std::allocator<igl::opengl::ViewerCore>>::_Vector_impl_data" }
%"struct.std::_Vector_base<igl::opengl::ViewerCore, std::allocator<igl::opengl::ViewerCore>>::_Vector_impl_data" = type { ptr, ptr, ptr }
%"class.std::vector.6" = type { %"struct.std::_Vector_base.7" }
%"struct.std::_Vector_base.7" = type { %"struct.std::_Vector_base<igl::opengl::glfw::ViewerPlugin *, std::allocator<igl::opengl::glfw::ViewerPlugin *>>::_Vector_impl" }
%"struct.std::_Vector_base<igl::opengl::glfw::ViewerPlugin *, std::allocator<igl::opengl::glfw::ViewerPlugin *>>::_Vector_impl" = type { %"struct.std::_Vector_base<igl::opengl::glfw::ViewerPlugin *, std::allocator<igl::opengl::glfw::ViewerPlugin *>>::_Vector_impl_data" }
%"struct.std::_Vector_base<igl::opengl::glfw::ViewerPlugin *, std::allocator<igl::opengl::glfw::ViewerPlugin *>>::_Vector_impl_data" = type { ptr, ptr, ptr }
%"class.Eigen::Quaternion" = type { %"class.Eigen::Matrix" }
%"class.Eigen::Matrix" = type { %"class.Eigen::PlainObjectBase" }
%"class.Eigen::PlainObjectBase" = type { %"class.Eigen::DenseStorage" }
%"class.Eigen::DenseStorage" = type { %"struct.Eigen::internal::plain_array" }
%"struct.Eigen::internal::plain_array" = type { [4 x float] }
%"class.Eigen::Matrix.13" = type { %"class.Eigen::PlainObjectBase.14" }
%"class.Eigen::PlainObjectBase.14" = type { %"class.Eigen::DenseStorage.21" }
%"class.Eigen::DenseStorage.21" = type { %"struct.Eigen::internal::plain_array.22" }
%"struct.Eigen::internal::plain_array.22" = type { [3 x float] }
%"class.std::function" = type { %"class.std::_Function_base", ptr }
%"class.std::_Function_base" = type { %"union.std::_Any_data", ptr }
%"union.std::_Any_data" = type { %"union.std::_Nocopy_types" }
%"union.std::_Nocopy_types" = type { { i64, i64 } }
%"class.std::function.25" = type { %"class.std::_Function_base", ptr }
%"class.std::function.23" = type { %"class.std::_Function_base", ptr }
%"class.std::function.27" = type { %"class.std::_Function_base", ptr }
%"class.igl::opengl::ViewerCore" = type { i32, [12 x i8], %"class.Eigen::Matrix", %"class.Eigen::Matrix.13", i8, i8, i32, i32, i32, i32, i32, float, i32, [4 x i8], %"class.Eigen::Quaternion", float, float, i8, %"class.Eigen::Matrix.13", %"class.Eigen::Matrix.13", %"class.Eigen::Matrix.13", %"class.Eigen::Matrix.13", %"class.Eigen::Matrix.13", float, float, float, i8, i8, double, float, [12 x i8], %"class.Eigen::Matrix", %"class.Eigen::Matrix.32", %"class.Eigen::Matrix.32", %"class.Eigen::Matrix.32", %"class.Eigen::Matrix.32", %"class.Eigen::Matrix.32" }
%"class.Eigen::Matrix.32" = type { %"class.Eigen::PlainObjectBase.33" }
%"class.Eigen::PlainObjectBase.33" = type { %"class.Eigen::DenseStorage.40" }
%"class.Eigen::DenseStorage.40" = type { %"struct.Eigen::internal::plain_array.41" }
%"struct.Eigen::internal::plain_array.41" = type { [16 x float] }

; Function Attrs: mustprogress nounwind uwtable
define linkonce_odr dso_local noundef nonnull align 8 dereferenceable(8) ptr @_ZNSt6vectorIPN3igl6opengl4glfw12ViewerPluginESaIS4_EEixEm(ptr noundef nonnull align 8 dereferenceable(24) %0, i64 noundef %1) #1 comdat align 2 {
  %3 = alloca ptr, align 8
  %4 = alloca i64, align 8
  store ptr %0, ptr %3, align 8, !tbaa !165
  store i64 %1, ptr %4, align 8, !tbaa !130
  %5 = load ptr, ptr %3, align 8
  %6 = getelementptr inbounds nuw %"struct.std::_Vector_base.7", ptr %5, i32 0, i32 0
  %7 = getelementptr inbounds nuw %"struct.std::_Vector_base<igl::opengl::glfw::ViewerPlugin *, std::allocator<igl::opengl::glfw::ViewerPlugin *>>::_Vector_impl_data", ptr %6, i32 0, i32 0
  %8 = load ptr, ptr %7, align 8, !tbaa !168
  %9 = load i64, ptr %4, align 8, !tbaa !130
  %10 = getelementptr inbounds nuw ptr, ptr %8, i64 %9
  ret ptr %10
}

; Function Attrs: mustprogress nounwind uwtable
define linkonce_odr dso_local noundef i64 @_ZNKSt6vectorIPN3igl6opengl4glfw12ViewerPluginESaIS4_EE4sizeEv(ptr noundef nonnull align 8 dereferenceable(24) %0) #1 comdat align 2 {
  %2 = alloca ptr, align 8
  store ptr %0, ptr %2, align 8, !tbaa !165
  %3 = load ptr, ptr %2, align 8
  %4 = getelementptr inbounds nuw %"struct.std::_Vector_base.7", ptr %3, i32 0, i32 0
  %5 = getelementptr inbounds nuw %"struct.std::_Vector_base<igl::opengl::glfw::ViewerPlugin *, std::allocator<igl::opengl::glfw::ViewerPlugin *>>::_Vector_impl_data", ptr %4, i32 0, i32 1
  %6 = load ptr, ptr %5, align 8, !tbaa !167
  %7 = getelementptr inbounds nuw %"struct.std::_Vector_base.7", ptr %3, i32 0, i32 0
  %8 = getelementptr inbounds nuw %"struct.std::_Vector_base<igl::opengl::glfw::ViewerPlugin *, std::allocator<igl::opengl::glfw::ViewerPlugin *>>::_Vector_impl_data", ptr %7, i32 0, i32 0
  %9 = load ptr, ptr %8, align 8, !tbaa !168
  %10 = ptrtoint ptr %6 to i64
  %11 = ptrtoint ptr %9 to i64
  %12 = sub i64 %10, %11
  %13 = sdiv exact i64 %12, 8
  ret i64 %13
}

; Function Attrs: noinline noreturn nounwind uwtable
define linkonce_odr hidden void @__clang_call_terminate(ptr noundef %0) #11 comdat {
  %2 = call ptr @__cxa_begin_catch(ptr %0) #26
  call void @_ZSt9terminatev() #27
  unreachable
}

; Function Attrs: mustprogress nounwind uwtable
define linkonce_odr dso_local noundef zeroext i1 @_ZNKSt14_Function_base8_M_emptyEv(ptr noundef nonnull align 8 dereferenceable(24) %0) #1 comdat align 2 {
  %2 = alloca ptr, align 8
  store ptr %0, ptr %2, align 8, !tbaa !211
  %3 = load ptr, ptr %2, align 8
  %4 = getelementptr inbounds nuw %"class.std::_Function_base", ptr %3, i32 0, i32 1
  %5 = load ptr, ptr %4, align 8, !tbaa !203
  %6 = icmp ne ptr %5, null
  %7 = xor i1 %6, true
  ret i1 %7
}

; Function Attrs: mustprogress nounwind uwtable
define linkonce_odr dso_local noundef nonnull align 8 dereferenceable(8) ptr @_ZNK9__gnu_cxx17__normal_iteratorIPN3igl6opengl10ViewerCoreESt6vectorIS3_SaIS3_EEE4baseEv(ptr noundef nonnull align 8 dereferenceable(8) %0) #1 comdat align 2 {
  %2 = alloca ptr, align 8
  store ptr %0, ptr %2, align 8, !tbaa !136
  %3 = load ptr, ptr %2, align 8
  %4 = getelementptr inbounds nuw %"class.__gnu_cxx::__normal_iterator", ptr %3, i32 0, i32 0
  ret ptr %4
}

; Function Attrs: mustprogress nounwind uwtable
define linkonce_odr dso_local void @_ZN9__gnu_cxx17__normal_iteratorIPN3igl6opengl10ViewerCoreESt6vectorIS3_SaIS3_EEEC2ERKS4_(ptr noundef nonnull align 8 dereferenceable(8) %0, ptr noundef nonnull align 8 dereferenceable(8) %1) unnamed_addr #1 comdat align 2 {
  %3 = alloca ptr, align 8
  %4 = alloca ptr, align 8
  store ptr %0, ptr %3, align 8, !tbaa !136
  store ptr %1, ptr %4, align 8, !tbaa !406
  %5 = load ptr, ptr %3, align 8
  %6 = getelementptr inbounds nuw %"class.__gnu_cxx::__normal_iterator", ptr %5, i32 0, i32 0
  %7 = load ptr, ptr %4, align 8, !tbaa !406
  %8 = load ptr, ptr %7, align 8, !tbaa !73
  store ptr %8, ptr %6, align 8, !tbaa !138
  ret void
}

; Function Attrs: mustprogress uwtable
define dso_local void @_ZN3igl6opengl4glfw6Viewer12init_pluginsEv(ptr noundef nonnull align 16 dereferenceable(616) %0) #3 align 2 {
  %2 = alloca ptr, align 8
  %3 = alloca i32, align 4
  store ptr %0, ptr %2, align 8, !tbaa !15
  %4 = load ptr, ptr %2, align 8
  call void @llvm.lifetime.start.p0(i64 4, ptr %3) #26
  store i32 0, ptr %3, align 4, !tbaa !21
  br label %5

5:                                                ; preds = %21, %1
  %6 = load i32, ptr %3, align 4, !tbaa !21
  %7 = zext i32 %6 to i64
  %8 = getelementptr inbounds nuw %"class.igl::opengl::glfw::Viewer", ptr %4, i32 0, i32 8
  %9 = call noundef i64 @_ZNKSt6vectorIPN3igl6opengl4glfw12ViewerPluginESaIS4_EE4sizeEv(ptr noundef nonnull align 8 dereferenceable(24) %8) #26
  %10 = icmp ult i64 %7, %9
  br i1 %10, label %12, label %11

11:                                               ; preds = %5
  call void @llvm.lifetime.end.p0(i64 4, ptr %3) #26
  br label %24

12:                                               ; preds = %5
  %13 = getelementptr inbounds nuw %"class.igl::opengl::glfw::Viewer", ptr %4, i32 0, i32 8
  %14 = load i32, ptr %3, align 4, !tbaa !21
  %15 = zext i32 %14 to i64
  %16 = call noundef nonnull align 8 dereferenceable(8) ptr @_ZNSt6vectorIPN3igl6opengl4glfw12ViewerPluginESaIS4_EEixEm(ptr noundef nonnull align 8 dereferenceable(24) %13, i64 noundef %15) #26
  %17 = load ptr, ptr %16, align 8, !tbaa !144
  %18 = load ptr, ptr %17, align 8, !tbaa !146
  %19 = getelementptr inbounds ptr, ptr %18, i64 2
  %20 = load ptr, ptr %19, align 8
  call void %20(ptr noundef nonnull align 8 dereferenceable(48) %17, ptr noundef %4)
  br label %21

21:                                               ; preds = %12
  %22 = load i32, ptr %3, align 4, !tbaa !21
  %23 = add i32 %22, 1
  store i32 %23, ptr %3, align 4, !tbaa !21
  br label %5, !llvm.loop !164

24:                                               ; preds = %11
  ret void
}

; Function Attrs: mustprogress uwtable
define linkonce_odr dso_local noundef zeroext i1 @_ZNKSt8functionIFbRN3igl6opengl4glfw6ViewerEEEclES4_(ptr noundef nonnull align 8 dereferenceable(32) %0, ptr noundef nonnull align 16 dereferenceable(616) %1) #3 comdat align 2 {
  %3 = alloca ptr, align 8
  %4 = alloca ptr, align 8
  store ptr %0, ptr %3, align 8, !tbaa !161
  store ptr %1, ptr %4, align 8, !tbaa !15
  %5 = load ptr, ptr %3, align 8
  %6 = call noundef zeroext i1 @_ZNKSt14_Function_base8_M_emptyEv(ptr noundef nonnull align 8 dereferenceable(24) %5)
  br i1 %6, label %7, label %8

7:                                                ; preds = %2
  call void @_ZSt25__throw_bad_function_callv() #29
  unreachable

8:                                                ; preds = %2
  %9 = getelementptr inbounds nuw %"class.std::function", ptr %5, i32 0, i32 1
  %10 = load ptr, ptr %9, align 8, !tbaa !163
  %11 = getelementptr inbounds nuw %"class.std::_Function_base", ptr %5, i32 0, i32 0
  %12 = load ptr, ptr %4, align 8, !tbaa !15
  %13 = call noundef zeroext i1 %10(ptr noundef nonnull align 8 dereferenceable(16) %11, ptr noundef nonnull align 16 dereferenceable(616) %12)
  ret i1 %13
}

; Function Attrs: mustprogress nounwind uwtable
define linkonce_odr dso_local noundef zeroext i1 @_ZNKSt8functionIFbRN3igl6opengl4glfw6ViewerEEEcvbEv(ptr noundef nonnull align 8 dereferenceable(32) %0) #1 comdat align 2 personality ptr @__gxx_personality_v0 {
  %2 = alloca ptr, align 8
  store ptr %0, ptr %2, align 8, !tbaa !161
  %3 = load ptr, ptr %2, align 8
  %4 = invoke noundef zeroext i1 @_ZNKSt14_Function_base8_M_emptyEv(ptr noundef nonnull align 8 dereferenceable(24) %3)
          to label %5 unwind label %7

5:                                                ; preds = %1
  %6 = xor i1 %4, true
  ret i1 %6

7:                                                ; preds = %1
  %8 = landingpad { ptr, i32 }
          catch ptr null
  %9 = extractvalue { ptr, i32 } %8, 0
  call void @__clang_call_terminate(ptr %9) #27
  unreachable
}

; Function Attrs: mustprogress nounwind uwtable
define linkonce_odr dso_local noundef nonnull align 8 dereferenceable(8) ptr @_ZN9__gnu_cxx17__normal_iteratorIPN3igl6opengl10ViewerCoreESt6vectorIS3_SaIS3_EEEppEv(ptr noundef nonnull align 8 dereferenceable(8) %0) #1 comdat align 2 {
  %2 = alloca ptr, align 8
  store ptr %0, ptr %2, align 8, !tbaa !136
  %3 = load ptr, ptr %2, align 8
  %4 = getelementptr inbounds nuw %"class.__gnu_cxx::__normal_iterator", ptr %3, i32 0, i32 0
  %5 = load ptr, ptr %4, align 8, !tbaa !138
  %6 = getelementptr inbounds nuw %"class.igl::opengl::ViewerCore", ptr %5, i32 1
  store ptr %6, ptr %4, align 8, !tbaa !138
  ret ptr %3
}

; Function Attrs: mustprogress nounwind uwtable
define linkonce_odr dso_local noundef nonnull align 16 dereferenceable(544) ptr @_ZNK9__gnu_cxx17__normal_iteratorIPN3igl6opengl10ViewerCoreESt6vectorIS3_SaIS3_EEEdeEv(ptr noundef nonnull align 8 dereferenceable(8) %0) #1 comdat align 2 {
  %2 = alloca ptr, align 8
  store ptr %0, ptr %2, align 8, !tbaa !136
  %3 = load ptr, ptr %2, align 8
  %4 = getelementptr inbounds nuw %"class.__gnu_cxx::__normal_iterator", ptr %3, i32 0, i32 0
  %5 = load ptr, ptr %4, align 8, !tbaa !138
  ret ptr %5
}

; Function Attrs: inlinehint mustprogress nounwind uwtable
define linkonce_odr dso_local noundef zeroext i1 @_ZN9__gnu_cxxneIPN3igl6opengl10ViewerCoreESt6vectorIS3_SaIS3_EEEEbRKNS_17__normal_iteratorIT_T0_EESD_(ptr noundef nonnull align 8 dereferenceable(8) %0, ptr noundef nonnull align 8 dereferenceable(8) %1) #6 comdat {
  %3 = alloca ptr, align 8
  %4 = alloca ptr, align 8
  store ptr %0, ptr %3, align 8, !tbaa !136
  store ptr %1, ptr %4, align 8, !tbaa !136
  %5 = load ptr, ptr %3, align 8, !tbaa !136
  %6 = call noundef nonnull align 8 dereferenceable(8) ptr @_ZNK9__gnu_cxx17__normal_iteratorIPN3igl6opengl10ViewerCoreESt6vectorIS3_SaIS3_EEE4baseEv(ptr noundef nonnull align 8 dereferenceable(8) %5) #26
  %7 = load ptr, ptr %6, align 8, !tbaa !73
  %8 = load ptr, ptr %4, align 8, !tbaa !136
  %9 = call noundef nonnull align 8 dereferenceable(8) ptr @_ZNK9__gnu_cxx17__normal_iteratorIPN3igl6opengl10ViewerCoreESt6vectorIS3_SaIS3_EEE4baseEv(ptr noundef nonnull align 8 dereferenceable(8) %8) #26
  %10 = load ptr, ptr %9, align 8, !tbaa !73
  %11 = icmp ne ptr %7, %10
  ret i1 %11
}

; Function Attrs: mustprogress nounwind uwtable
define linkonce_odr dso_local ptr @_ZNSt6vectorIN3igl6opengl10ViewerCoreESaIS2_EE3endEv(ptr noundef nonnull align 8 dereferenceable(24) %0) #1 comdat align 2 {
  %2 = alloca %"class.__gnu_cxx::__normal_iterator", align 8
  %3 = alloca ptr, align 8
  store ptr %0, ptr %3, align 8, !tbaa !71
  %4 = load ptr, ptr %3, align 8
  %5 = getelementptr inbounds nuw %"struct.std::_Vector_base.2", ptr %4, i32 0, i32 0
  %6 = getelementptr inbounds nuw %"struct.std::_Vector_base<igl::opengl::ViewerCore, std::allocator<igl::opengl::ViewerCore>>::_Vector_impl_data", ptr %5, i32 0, i32 1
  call void @_ZN9__gnu_cxx17__normal_iteratorIPN3igl6opengl10ViewerCoreESt6vectorIS3_SaIS3_EEEC2ERKS4_(ptr noundef nonnull align 8 dereferenceable(8) %2, ptr noundef nonnull align 8 dereferenceable(8) %6) #26
  %7 = getelementptr inbounds nuw %"class.__gnu_cxx::__normal_iterator", ptr %2, i32 0, i32 0
  %8 = load ptr, ptr %7, align 8
  ret ptr %8
}

; Function Attrs: mustprogress nounwind uwtable
define linkonce_odr dso_local ptr @_ZNSt6vectorIN3igl6opengl10ViewerCoreESaIS2_EE5beginEv(ptr noundef nonnull align 8 dereferenceable(24) %0) #1 comdat align 2 {
  %2 = alloca %"class.__gnu_cxx::__normal_iterator", align 8
  %3 = alloca ptr, align 8
  store ptr %0, ptr %3, align 8, !tbaa !71
  %4 = load ptr, ptr %3, align 8
  %5 = getelementptr inbounds nuw %"struct.std::_Vector_base.2", ptr %4, i32 0, i32 0
  %6 = getelementptr inbounds nuw %"struct.std::_Vector_base<igl::opengl::ViewerCore, std::allocator<igl::opengl::ViewerCore>>::_Vector_impl_data", ptr %5, i32 0, i32 0
  call void @_ZN9__gnu_cxx17__normal_iteratorIPN3igl6opengl10ViewerCoreESt6vectorIS3_SaIS3_EEEC2ERKS4_(ptr noundef nonnull align 8 dereferenceable(8) %2, ptr noundef nonnull align 8 dereferenceable(8) %6) #26
  %7 = getelementptr inbounds nuw %"class.__gnu_cxx::__normal_iterator", ptr %2, i32 0, i32 0
  %8 = load ptr, ptr %7, align 8
  ret ptr %8
}

; Function Attrs: mustprogress uwtable
define dso_local void @_ZN3igl6opengl4glfw6Viewer4initEv(ptr noundef nonnull align 16 dereferenceable(616) %0) #3 align 2 {
  %2 = alloca ptr, align 8
  %3 = alloca ptr, align 8
  %4 = alloca %"class.__gnu_cxx::__normal_iterator", align 8
  %5 = alloca %"class.__gnu_cxx::__normal_iterator", align 8
  %6 = alloca ptr, align 8
  store ptr %0, ptr %2, align 8, !tbaa !15
  %7 = load ptr, ptr %2, align 8
  call void @llvm.lifetime.start.p0(i64 8, ptr %3) #26
  %8 = getelementptr inbounds nuw %"class.igl::opengl::glfw::Viewer", ptr %7, i32 0, i32 5
  store ptr %8, ptr %3, align 8, !tbaa !71
  call void @llvm.lifetime.start.p0(i64 8, ptr %4) #26
  %9 = load ptr, ptr %3, align 8, !tbaa !71
  %10 = call ptr @_ZNSt6vectorIN3igl6opengl10ViewerCoreESaIS2_EE5beginEv(ptr noundef nonnull align 8 dereferenceable(24) %9) #26
  %11 = getelementptr inbounds nuw %"class.__gnu_cxx::__normal_iterator", ptr %4, i32 0, i32 0
  store ptr %10, ptr %11, align 8
  call void @llvm.lifetime.start.p0(i64 8, ptr %5) #26
  %12 = load ptr, ptr %3, align 8, !tbaa !71
  %13 = call ptr @_ZNSt6vectorIN3igl6opengl10ViewerCoreESaIS2_EE3endEv(ptr noundef nonnull align 8 dereferenceable(24) %12) #26
  %14 = getelementptr inbounds nuw %"class.__gnu_cxx::__normal_iterator", ptr %5, i32 0, i32 0
  store ptr %13, ptr %14, align 8
  br label %15

15:                                               ; preds = %21, %1
  %16 = call noundef zeroext i1 @_ZN9__gnu_cxxneIPN3igl6opengl10ViewerCoreESt6vectorIS3_SaIS3_EEEEbRKNS_17__normal_iteratorIT_T0_EESD_(ptr noundef nonnull align 8 dereferenceable(8) %4, ptr noundef nonnull align 8 dereferenceable(8) %5) #26
  br i1 %16, label %18, label %17

17:                                               ; preds = %15
  call void @llvm.lifetime.end.p0(i64 8, ptr %5) #26
  call void @llvm.lifetime.end.p0(i64 8, ptr %4) #26
  call void @llvm.lifetime.end.p0(i64 8, ptr %3) #26
  br label %23

18:                                               ; preds = %15
  call void @llvm.lifetime.start.p0(i64 8, ptr %6) #26
  %19 = call noundef nonnull align 16 dereferenceable(544) ptr @_ZNK9__gnu_cxx17__normal_iteratorIPN3igl6opengl10ViewerCoreESt6vectorIS3_SaIS3_EEEdeEv(ptr noundef nonnull align 8 dereferenceable(8) %4) #26
  store ptr %19, ptr %6, align 8, !tbaa !73
  %20 = load ptr, ptr %6, align 8, !tbaa !73
  call void @_ZN3igl6opengl10ViewerCore4initEv(ptr noundef nonnull align 16 dereferenceable(544) %20)
  call void @llvm.lifetime.end.p0(i64 8, ptr %6) #26
  br label %21

21:                                               ; preds = %18
  %22 = call noundef nonnull align 8 dereferenceable(8) ptr @_ZN9__gnu_cxx17__normal_iteratorIPN3igl6opengl10ViewerCoreESt6vectorIS3_SaIS3_EEEppEv(ptr noundef nonnull align 8 dereferenceable(8) %4) #26
  br label %15

23:                                               ; preds = %17
  %24 = getelementptr inbounds nuw %"class.igl::opengl::glfw::Viewer", ptr %7, i32 0, i32 20
  %25 = call noundef zeroext i1 @_ZNKSt8functionIFbRN3igl6opengl4glfw6ViewerEEEcvbEv(ptr noundef nonnull align 8 dereferenceable(32) %24) #26
  br i1 %25, label %26, label %31

26:                                               ; preds = %23
  %27 = getelementptr inbounds nuw %"class.igl::opengl::glfw::Viewer", ptr %7, i32 0, i32 20
  %28 = call noundef zeroext i1 @_ZNKSt8functionIFbRN3igl6opengl4glfw6ViewerEEEclES4_(ptr noundef nonnull align 8 dereferenceable(32) %27, ptr noundef nonnull align 16 dereferenceable(616) %7)
  br i1 %28, label %29, label %30

29:                                               ; preds = %26
  br label %32

30:                                               ; preds = %26
  br label %31

31:                                               ; preds = %30, %23
  call void @_ZN3igl6opengl4glfw6Viewer12init_pluginsEv(ptr noundef nonnull align 16 dereferenceable(616) %7)
  br label %32

32:                                               ; preds = %31, %29
  ret void
}