; Function Attrs: mustprogress uwtable
define dso_local void @_ZN3igl6opengl4glfw6Viewer4initEv(ptr noundef nonnull align 16 dereferenceable(616) %0) local_unnamed_addr #0 align 2 personality ptr @__gxx_personality_v0 {
  %2 = getelementptr inbounds nuw i8, ptr %0, i64 56
  %3 = load ptr, ptr %2, align 8, !tbaa !9
  %4 = getelementptr inbounds nuw i8, ptr %0, i64 64
  %5 = load ptr, ptr %4, align 16, !tbaa !9
  %.not8 = icmp eq ptr %3, %5
  br i1 %.not8, label %._crit_edge, label %.lr.ph

._crit_edge:                                      ; preds = %.lr.ph, %1
  %6 = getelementptr inbounds nuw i8, ptr %0, i64 200
  %7 = load ptr, ptr %6, align 8, !tbaa !71
  %.not.i.i.not = icmp eq ptr %7, null
  br i1 %.not.i.i.not, label %13, label %_ZNKSt8functionIFbRN3igl6opengl4glfw6ViewerEEEclES4_.exit

.lr.ph:                                           ; preds = %1, %.lr.ph
  %.sroa.05.09 = phi ptr [ %8, %.lr.ph ], [ %3, %1 ]
  tail call void @_ZN3igl6opengl10ViewerCore4initEv(ptr noundef nonnull align 16 dereferenceable(544) %.sroa.05.09)
  %8 = getelementptr inbounds nuw i8, ptr %.sroa.05.09, i64 544
  %.not = icmp eq ptr %8, %5
  br i1 %.not, label %._crit_edge, label %.lr.ph

_ZNKSt8functionIFbRN3igl6opengl4glfw6ViewerEEEclES4_.exit: ; preds = %._crit_edge
  %9 = getelementptr inbounds nuw i8, ptr %0, i64 184
  %10 = getelementptr inbounds nuw i8, ptr %0, i64 208
  %11 = load ptr, ptr %10, align 16, !tbaa !75
  %12 = tail call noundef zeroext i1 %11(ptr noundef nonnull align 8 dereferenceable(32) %9, ptr noundef nonnull align 16 dereferenceable(616) %0)
  br i1 %12, label %_ZN3igl6opengl4glfw6Viewer12init_pluginsEv.exit, label %13

13:                                               ; preds = %_ZNKSt8functionIFbRN3igl6opengl4glfw6ViewerEEEclES4_.exit, %._crit_edge
  %14 = getelementptr inbounds nuw i8, ptr %0, i64 96
  %15 = getelementptr inbounds nuw i8, ptr %0, i64 104
  %16 = load ptr, ptr %15, align 8, !tbaa !11
  %17 = load ptr, ptr %14, align 16, !tbaa !15
  %.not.i = icmp eq ptr %16, %17
  br i1 %.not.i, label %_ZN3igl6opengl4glfw6Viewer12init_pluginsEv.exit, label %.lr.ph.i

.lr.ph.i:                                         ; preds = %13, %.lr.ph.i
  %18 = phi ptr [ %28, %.lr.ph.i ], [ %17, %13 ]
  %19 = phi i64 [ %26, %.lr.ph.i ], [ 0, %13 ]
  %.04.i = phi i32 [ %25, %.lr.ph.i ], [ 0, %13 ]
  %20 = getelementptr inbounds nuw ptr, ptr %18, i64 %19
  %21 = load ptr, ptr %20, align 8, !tbaa !16
  %22 = load ptr, ptr %21, align 8, !tbaa !18
  %23 = getelementptr inbounds nuw i8, ptr %22, i64 16
  %24 = load ptr, ptr %23, align 8
  tail call void %24(ptr noundef nonnull align 8 dereferenceable(48) %21, ptr noundef nonnull align 16 dereferenceable(616) %0)
  %25 = add i32 %.04.i, 1
  %26 = zext i32 %25 to i64
  %27 = load ptr, ptr %15, align 8, !tbaa !11
  %28 = load ptr, ptr %14, align 16, !tbaa !15
  %29 = ptrtoint ptr %27 to i64
  %30 = ptrtoint ptr %28 to i64
  %31 = sub i64 %29, %30
  %32 = ashr exact i64 %31, 3
  %33 = icmp ugt i64 %32, %26
  br i1 %33, label %.lr.ph.i, label %_ZN3igl6opengl4glfw6Viewer12init_pluginsEv.exit, !llvm.loop !76

_ZN3igl6opengl4glfw6Viewer12init_pluginsEv.exit:  ; preds = %.lr.ph.i, %13, %_ZNKSt8functionIFbRN3igl6opengl4glfw6ViewerEEEclES4_.exit
  ret void
}